target datalayout = "e-m:e-p270:32:32-p271:32:32-p272:64:64-i64:64-i128:128-f80:128-n8:16:32:64-S128"
target triple = "x86_64-pc-linux-gnu"

%"class.clang::SourceLocation" = type { i32 }
%"class.(anonymous namespace)::EmptyChecker" = type { ptr, ptr }
%"class.clang::Stmt" = type { %union.anon.378 }
%union.anon.378 = type { %"class.clang::Stmt::PseudoObjectExprBitfields" }
%"class.clang::Stmt::PseudoObjectExprBitfields" = type { i64 }
%"class.clang::ObjCForCollectionStmt" = type { %"class.clang::Stmt", [3 x ptr], %"class.clang::SourceLocation", %"class.clang::SourceLocation" }

; Function Attrs: mustprogress nounwind uwtable
define linkonce_odr hidden noundef ptr @_ZN5clang21ObjCForCollectionStmt7getBodyEv(ptr noundef nonnull align 8 dereferenceable(40) %0) #0 comdat align 2 {
  %2 = alloca ptr, align 8
  store ptr %0, ptr %2, align 8
  %3 = load ptr, ptr %2, align 8
  %4 = getelementptr inbounds nuw %"class.clang::ObjCForCollectionStmt", ptr %3, i32 0, i32 1
  %5 = getelementptr inbounds [3 x ptr], ptr %4, i64 0, i64 2
  %6 = load ptr, ptr %5, align 8
  ret ptr %6
}

; Function Attrs: mustprogress nounwind uwtable
define linkonce_odr hidden noundef ptr @_ZN5clang21ObjCForCollectionStmt13getCollectionEv(ptr noundef nonnull align 8 dereferenceable(40) %0) #0 comdat align 2 {
  %2 = alloca ptr, align 8
  store ptr %0, ptr %2, align 8
  %3 = load ptr, ptr %2, align 8
  %4 = getelementptr inbounds nuw %"class.clang::ObjCForCollectionStmt", ptr %3, i32 0, i32 1
  %5 = getelementptr inbounds [3 x ptr], ptr %4, i64 0, i64 1
  %6 = load ptr, ptr %5, align 8
  ret ptr %6
}

; Function Attrs: mustprogress nounwind uwtable
define internal noundef zeroext i1 @_ZN12_GLOBAL__N_112EmptyChecker26VisitObjCForCollectionStmtEPN5clang21ObjCForCollectionStmtE(ptr noundef nonnull align 8 dereferenceable(16) %0, ptr noundef %1) #0 align 2 {
  %3 = alloca i1, align 1
  %4 = alloca ptr, align 8
  %5 = alloca ptr, align 8
  %6 = alloca ptr, align 8
  store ptr %0, ptr %4, align 8
  store ptr %1, ptr %5, align 8
  %7 = load ptr, ptr %4, align 8
  %8 = load ptr, ptr %5, align 8
  %9 = call noundef ptr @_ZN5clang21ObjCForCollectionStmt13getCollectionEv(ptr noundef nonnull align 8 dereferenceable(40) %8)
  store ptr %9, ptr %6, align 8
  %10 = load ptr, ptr %6, align 8
  %11 = icmp ne ptr %10, null
  br i1 %11, label %13, label %12

12:                                               ; preds = %2
  store i1 false, ptr %3, align 1
  br label %28

13:                                               ; preds = %2
  %14 = load ptr, ptr %6, align 8
  %15 = getelementptr inbounds nuw %"class.(anonymous namespace)::EmptyChecker", ptr %7, i32 0, i32 0
  %16 = load ptr, ptr %15, align 8
  %17 = call noundef zeroext i1 @_ZN5clang5arcmt5trans14hasSideEffectsEPNS_4ExprERNS_10ASTContextE(ptr noundef %14, ptr noundef nonnull align 8 dereferenceable(23096) %16)
  br i1 %17, label %18, label %19

18:                                               ; preds = %13
  store i1 false, ptr %3, align 1
  br label %28

19:                                               ; preds = %13
  %20 = load ptr, ptr %5, align 8
  %21 = call noundef ptr @_ZN5clang21ObjCForCollectionStmt7getBodyEv(ptr noundef nonnull align 8 dereferenceable(40) %20)
  %22 = icmp ne ptr %21, null
  br i1 %22, label %24, label %23

23:                                               ; preds = %19
  store i1 false, ptr %3, align 1
  br label %28

24:                                               ; preds = %19
  %25 = load ptr, ptr %5, align 8
  %26 = call noundef ptr @_ZN5clang21ObjCForCollectionStmt7getBodyEv(ptr noundef nonnull align 8 dereferenceable(40) %25)
  %27 = call noundef zeroext i1 @_ZN5clang15StmtVisitorBaseISt11add_pointerN12_GLOBAL__N_112EmptyCheckerEbJEE5VisitEPNS_4StmtE(ptr noundef nonnull align 1 dereferenceable(1) %7, ptr noundef %26)
  store i1 %27, ptr %3, align 1
  br label %28

28:                                               ; preds = %24, %23, %18, %12
  %29 = load i1, ptr %3, align 1
  ret i1 %29
}