; Function Attrs: mustprogress nounwind uwtable
define internal fastcc noundef zeroext i1 @_ZN12_GLOBAL__N_112EmptyChecker26VisitObjCForCollectionStmtEPN5clang21ObjCForCollectionStmtE(ptr noundef nonnull readonly align 8 captures(none) dereferenceable(16) %0, ptr noundef readonly captures(none) %1) unnamed_addr #0 align 2 {
  %3 = getelementptr inbounds nuw i8, ptr %1, i64 16
  %4 = load ptr, ptr %3, align 8
  %.not = icmp eq ptr %4, null
  br i1 %.not, label %13, label %5

5:                                                ; preds = %2
  %6 = load ptr, ptr %0, align 8
  %7 = tail call noundef zeroext i1 @_ZN5clang5arcmt5trans14hasSideEffectsEPNS_4ExprERNS_10ASTContextE(ptr noundef nonnull %4, ptr noundef nonnull align 8 dereferenceable(23096) %6) #14
  br i1 %7, label %13, label %8

8:                                                ; preds = %5
  %9 = getelementptr inbounds nuw i8, ptr %1, i64 24
  %10 = load ptr, ptr %9, align 8
  %.not8 = icmp eq ptr %10, null
  br i1 %.not8, label %13, label %11

11:                                               ; preds = %8
  %12 = tail call fastcc noundef zeroext i1 @_ZN5clang15StmtVisitorBaseISt11add_pointerN12_GLOBAL__N_112EmptyCheckerEbJEE5VisitEPNS_4StmtE(ptr noundef nonnull align 1 dereferenceable(1) %0, ptr noundef nonnull %10)
  br label %13

13:                                               ; preds = %8, %5, %2, %11
  %.0 = phi i1 [ %12, %11 ], [ false, %2 ], [ false, %5 ], [ false, %8 ]
  ret i1 %.0
}